target datalayout = "e-m:e-p270:32:32-p271:32:32-p272:64:64-i64:64-i128:128-f80:128-n8:16:32:64-S128"
target triple = "x86_64-pc-linux-gnu"

%struct.lv_area_t = type { i32, i32, i32, i32 }
%struct.lv_point_t = type { i32, i32 }

; Function Attrs: nounwind uwtable
define void @lv_point_set(ptr noundef %0, i32 noundef %1, i32 noundef %2) #0 {
  %4 = alloca ptr, align 8
  %5 = alloca i32, align 4
  %6 = alloca i32, align 4
  store ptr %0, ptr %4, align 8, !tbaa !3
  store i32 %1, ptr %5, align 4, !tbaa !7
  store i32 %2, ptr %6, align 4, !tbaa !7
  %7 = load i32, ptr %5, align 4, !tbaa !7
  %8 = load ptr, ptr %4, align 8, !tbaa !3
  %9 = getelementptr inbounds nuw %struct.lv_point_t, ptr %8, i32 0, i32 0
  store i32 %7, ptr %9, align 4, !tbaa !20
  %10 = load i32, ptr %6, align 4, !tbaa !7
  %11 = load ptr, ptr %4, align 8, !tbaa !3
  %12 = getelementptr inbounds nuw %struct.lv_point_t, ptr %11, i32 0, i32 1
  store i32 %10, ptr %12, align 4, !tbaa !22
  ret void
}

; Function Attrs: nounwind uwtable
define zeroext i1 @lv_area_is_out(ptr noundef %0, ptr noundef %1, i32 noundef %2) #0 {
  %4 = alloca i1, align 1
  %5 = alloca ptr, align 8
  %6 = alloca ptr, align 8
  %7 = alloca i32, align 4
  %8 = alloca %struct.lv_point_t, align 4
  %9 = alloca i32, align 4
  store ptr %0, ptr %5, align 8, !tbaa !3
  store ptr %1, ptr %6, align 8, !tbaa !3
  store i32 %2, ptr %7, align 4, !tbaa !7
  %10 = load ptr, ptr %5, align 8, !tbaa !3
  %11 = getelementptr inbounds nuw %struct.lv_area_t, ptr %10, i32 0, i32 2
  %12 = load i32, ptr %11, align 4, !tbaa !12
  %13 = load ptr, ptr %6, align 8, !tbaa !3
  %14 = getelementptr inbounds nuw %struct.lv_area_t, ptr %13, i32 0, i32 0
  %15 = load i32, ptr %14, align 4, !tbaa !9
  %16 = icmp slt i32 %12, %15
  br i1 %16, label %41, label %17

17:                                               ; preds = %3
  %18 = load ptr, ptr %5, align 8, !tbaa !3
  %19 = getelementptr inbounds nuw %struct.lv_area_t, ptr %18, i32 0, i32 3
  %20 = load i32, ptr %19, align 4, !tbaa !13
  %21 = load ptr, ptr %6, align 8, !tbaa !3
  %22 = getelementptr inbounds nuw %struct.lv_area_t, ptr %21, i32 0, i32 1
  %23 = load i32, ptr %22, align 4, !tbaa !11
  %24 = icmp slt i32 %20, %23
  br i1 %24, label %41, label %25

25:                                               ; preds = %17
  %26 = load ptr, ptr %5, align 8, !tbaa !3
  %27 = getelementptr inbounds nuw %struct.lv_area_t, ptr %26, i32 0, i32 0
  %28 = load i32, ptr %27, align 4, !tbaa !9
  %29 = load ptr, ptr %6, align 8, !tbaa !3
  %30 = getelementptr inbounds nuw %struct.lv_area_t, ptr %29, i32 0, i32 2
  %31 = load i32, ptr %30, align 4, !tbaa !12
  %32 = icmp sgt i32 %28, %31
  br i1 %32, label %41, label %33

33:                                               ; preds = %25
  %34 = load ptr, ptr %5, align 8, !tbaa !3
  %35 = getelementptr inbounds nuw %struct.lv_area_t, ptr %34, i32 0, i32 1
  %36 = load i32, ptr %35, align 4, !tbaa !11
  %37 = load ptr, ptr %6, align 8, !tbaa !3
  %38 = getelementptr inbounds nuw %struct.lv_area_t, ptr %37, i32 0, i32 3
  %39 = load i32, ptr %38, align 4, !tbaa !13
  %40 = icmp sgt i32 %36, %39
  br i1 %40, label %41, label %42

41:                                               ; preds = %33, %25, %17, %3
  store i1 true, ptr %4, align 1
  br label %92

42:                                               ; preds = %33
  %43 = load i32, ptr %7, align 4, !tbaa !7
  %44 = icmp eq i32 %43, 0
  br i1 %44, label %45, label %46

45:                                               ; preds = %42
  store i1 false, ptr %4, align 1
  br label %92

46:                                               ; preds = %42
  call void @llvm.lifetime.start.p0(i64 8, ptr %8) #5
  %47 = load ptr, ptr %5, align 8, !tbaa !3
  %48 = getelementptr inbounds nuw %struct.lv_area_t, ptr %47, i32 0, i32 0
  %49 = load i32, ptr %48, align 4, !tbaa !9
  %50 = load ptr, ptr %5, align 8, !tbaa !3
  %51 = getelementptr inbounds nuw %struct.lv_area_t, ptr %50, i32 0, i32 1
  %52 = load i32, ptr %51, align 4, !tbaa !11
  call void @lv_point_set(ptr noundef %8, i32 noundef %49, i32 noundef %52)
  %53 = load ptr, ptr %6, align 8, !tbaa !3
  %54 = load i32, ptr %7, align 4, !tbaa !7
  %55 = call zeroext i1 @lv_area_is_point_on(ptr noundef %53, ptr noundef %8, i32 noundef %54)
  br i1 %55, label %56, label %57

56:                                               ; preds = %46
  store i1 false, ptr %4, align 1
  store i32 1, ptr %9, align 4
  br label %91

57:                                               ; preds = %46
  %58 = load ptr, ptr %5, align 8, !tbaa !3
  %59 = getelementptr inbounds nuw %struct.lv_area_t, ptr %58, i32 0, i32 2
  %60 = load i32, ptr %59, align 4, !tbaa !12
  %61 = load ptr, ptr %5, align 8, !tbaa !3
  %62 = getelementptr inbounds nuw %struct.lv_area_t, ptr %61, i32 0, i32 1
  %63 = load i32, ptr %62, align 4, !tbaa !11
  call void @lv_point_set(ptr noundef %8, i32 noundef %60, i32 noundef %63)
  %64 = load ptr, ptr %6, align 8, !tbaa !3
  %65 = load i32, ptr %7, align 4, !tbaa !7
  %66 = call zeroext i1 @lv_area_is_point_on(ptr noundef %64, ptr noundef %8, i32 noundef %65)
  br i1 %66, label %67, label %68

67:                                               ; preds = %57
  store i1 false, ptr %4, align 1
  store i32 1, ptr %9, align 4
  br label %91

68:                                               ; preds = %57
  %69 = load ptr, ptr %5, align 8, !tbaa !3
  %70 = getelementptr inbounds nuw %struct.lv_area_t, ptr %69, i32 0, i32 0
  %71 = load i32, ptr %70, align 4, !tbaa !9
  %72 = load ptr, ptr %5, align 8, !tbaa !3
  %73 = getelementptr inbounds nuw %struct.lv_area_t, ptr %72, i32 0, i32 3
  %74 = load i32, ptr %73, align 4, !tbaa !13
  call void @lv_point_set(ptr noundef %8, i32 noundef %71, i32 noundef %74)
  %75 = load ptr, ptr %6, align 8, !tbaa !3
  %76 = load i32, ptr %7, align 4, !tbaa !7
  %77 = call zeroext i1 @lv_area_is_point_on(ptr noundef %75, ptr noundef %8, i32 noundef %76)
  br i1 %77, label %78, label %79

78:                                               ; preds = %68
  store i1 false, ptr %4, align 1
  store i32 1, ptr %9, align 4
  br label %91

79:                                               ; preds = %68
  %80 = load ptr, ptr %5, align 8, !tbaa !3
  %81 = getelementptr inbounds nuw %struct.lv_area_t, ptr %80, i32 0, i32 2
  %82 = load i32, ptr %81, align 4, !tbaa !12
  %83 = load ptr, ptr %5, align 8, !tbaa !3
  %84 = getelementptr inbounds nuw %struct.lv_area_t, ptr %83, i32 0, i32 3
  %85 = load i32, ptr %84, align 4, !tbaa !13
  call void @lv_point_set(ptr noundef %8, i32 noundef %82, i32 noundef %85)
  %86 = load ptr, ptr %6, align 8, !tbaa !3
  %87 = load i32, ptr %7, align 4, !tbaa !7
  %88 = call zeroext i1 @lv_area_is_point_on(ptr noundef %86, ptr noundef %8, i32 noundef %87)
  br i1 %88, label %89, label %90

89:                                               ; preds = %79
  store i1 false, ptr %4, align 1
  store i32 1, ptr %9, align 4
  br label %91

90:                                               ; preds = %79
  store i1 true, ptr %4, align 1
  store i32 1, ptr %9, align 4
  br label %91

91:                                               ; preds = %90, %89, %78, %67, %56
  call void @llvm.lifetime.end.p0(i64 8, ptr %8) #5
  br label %92

92:                                               ; preds = %91, %45, %41
  %93 = load i1, ptr %4, align 1
  ret i1 %93
}