; Function Attrs: mustprogress nofree norecurse nosync nounwind willreturn memory(argmem: read) uwtable
define zeroext i1 @lv_area_is_out(ptr noundef readonly captures(none) %0, ptr noundef readonly captures(none) %1, i32 noundef %2) local_unnamed_addr #3 {
  %4 = alloca %struct.lv_point_t, align 4
  %5 = getelementptr inbounds nuw i8, ptr %0, i64 8
  %6 = load i32, ptr %5, align 4, !tbaa !9
  %7 = load i32, ptr %1, align 4, !tbaa !3
  %8 = icmp slt i32 %6, %7
  br i1 %8, label %38, label %9

9:                                                ; preds = %3
  %10 = getelementptr inbounds nuw i8, ptr %0, i64 12
  %11 = load i32, ptr %10, align 4, !tbaa !10
  %12 = getelementptr inbounds nuw i8, ptr %1, i64 4
  %13 = load i32, ptr %12, align 4, !tbaa !8
  %14 = icmp slt i32 %11, %13
  br i1 %14, label %38, label %15

15:                                               ; preds = %9
  %16 = load i32, ptr %0, align 4, !tbaa !3
  %17 = getelementptr inbounds nuw i8, ptr %1, i64 8
  %18 = load i32, ptr %17, align 4, !tbaa !9
  %19 = icmp sgt i32 %16, %18
  br i1 %19, label %38, label %20

20:                                               ; preds = %15
  %21 = getelementptr inbounds nuw i8, ptr %0, i64 4
  %22 = load i32, ptr %21, align 4, !tbaa !8
  %23 = getelementptr inbounds nuw i8, ptr %1, i64 12
  %24 = load i32, ptr %23, align 4, !tbaa !10
  %25 = icmp sgt i32 %22, %24
  br i1 %25, label %38, label %26

26:                                               ; preds = %20
  %27 = icmp eq i32 %2, 0
  br i1 %27, label %38, label %28

28:                                               ; preds = %26
  call void @llvm.lifetime.start.p0(i64 8, ptr nonnull %4) #9
  store i32 %16, ptr %4, align 4, !tbaa !12
  %29 = getelementptr inbounds nuw i8, ptr %4, i64 4
  store i32 %22, ptr %29, align 4, !tbaa !14
  %30 = call zeroext i1 @lv_area_is_point_on(ptr noundef nonnull %1, ptr noundef nonnull %4, i32 noundef %2)
  br i1 %30, label %37, label %31

31:                                               ; preds = %28
  store i32 %6, ptr %4, align 4, !tbaa !12
  store i32 %22, ptr %29, align 4, !tbaa !14
  %32 = call zeroext i1 @lv_area_is_point_on(ptr noundef nonnull %1, ptr noundef nonnull %4, i32 noundef %2)
  br i1 %32, label %37, label %33

33:                                               ; preds = %31
  store i32 %16, ptr %4, align 4, !tbaa !12
  store i32 %11, ptr %29, align 4, !tbaa !14
  %34 = call zeroext i1 @lv_area_is_point_on(ptr noundef nonnull %1, ptr noundef nonnull %4, i32 noundef %2)
  br i1 %34, label %37, label %35

35:                                               ; preds = %33
  store i32 %6, ptr %4, align 4, !tbaa !12
  store i32 %11, ptr %29, align 4, !tbaa !14
  %36 = call zeroext i1 @lv_area_is_point_on(ptr noundef nonnull %1, ptr noundef nonnull %4, i32 noundef %2)
  %not. = xor i1 %36, true
  br label %37

37:                                               ; preds = %35, %33, %31, %28
  %.1 = phi i1 [ false, %28 ], [ false, %31 ], [ false, %33 ], [ %not., %35 ]
  call void @llvm.lifetime.end.p0(i64 8, ptr nonnull %4) #9
  br label %38

38:                                               ; preds = %26, %3, %9, %15, %20, %37
  %.0 = phi i1 [ %.1, %37 ], [ true, %20 ], [ true, %15 ], [ true, %9 ], [ true, %3 ], [ false, %26 ]
  ret i1 %.0
}